; Function Attrs: mustprogress uwtable
define void @_ZN7rocksdb16WritePreparedTxn28CommitWithoutPrepareInternalEv(ptr dead_on_unwind noalias writable sret(%"class.rocksdb::Status") align 8 %0, ptr noundef nonnull align 8 dereferenceable(664) %1) unnamed_addr #4 align 2 {
  %3 = load ptr, ptr %1, align 8, !tbaa !18
  %4 = getelementptr inbounds nuw i8, ptr %3, i64 576
  %5 = load ptr, ptr %4, align 8
  %6 = tail call noundef ptr %5(ptr noundef nonnull align 8 dereferenceable(400) %1)
  %7 = tail call noundef i64 @_ZN7rocksdb19WriteBatchWithIndex11SubBatchCntEv(ptr noundef nonnull align 8 dereferenceable(16) %6)
  %8 = load ptr, ptr %1, align 8, !tbaa !18
  %9 = getelementptr inbounds nuw i8, ptr %8, i64 576
  %10 = load ptr, ptr %9, align 8
  %11 = tail call noundef ptr %10(ptr noundef nonnull align 8 dereferenceable(400) %1)
  %12 = load ptr, ptr %11, align 8, !tbaa !18
  %13 = getelementptr inbounds nuw i8, ptr %12, i64 256
  %14 = load ptr, ptr %13, align 8
  %15 = tail call noundef ptr %14(ptr noundef nonnull align 8 dereferenceable(16) %11)
  %16 = load ptr, ptr %1, align 8, !tbaa !18
  %17 = getelementptr inbounds nuw i8, ptr %16, i64 792
  %18 = load ptr, ptr %17, align 8
  tail call void %18(ptr dead_on_unwind writable sret(%"class.rocksdb::Status") align 8 %0, ptr noundef nonnull align 8 dereferenceable(664) %1, ptr noundef %15, i64 noundef %7)
  ret void
}